target datalayout = "e-m:e-p270:32:32-p271:32:32-p272:64:64-i64:64-i128:128-f80:128-n8:16:32:64-S128"
target triple = "x86_64-pc-linux-gnu"

%struct.expert_field = type { i32, i32 }

@ei_gsm_a_bssmap_extraneous_data = internal global %struct.expert_field zeroinitializer, align 4
@hf_gsm_a_bssmap_trace_reference = internal global i32 0, align 4

; Function Attrs: null_pointer_is_valid sspstrong uwtable
define internal zeroext i16 @be_trace_transaction_id(ptr noundef %0, ptr noundef %1, ptr noundef %2, i32 noundef %3, i32 noundef %4, ptr noundef %5, i32 noundef %6) #1 {
  %8 = alloca ptr, align 8
  %9 = alloca ptr, align 8
  %10 = alloca ptr, align 8
  %11 = alloca i32, align 4
  %12 = alloca i32, align 4
  %13 = alloca ptr, align 8
  %14 = alloca i32, align 4
  %15 = alloca i32, align 4
  store ptr %0, ptr %8, align 8
  store ptr %1, ptr %9, align 8
  store ptr %2, ptr %10, align 8
  store i32 %3, ptr %11, align 4
  store i32 %4, ptr %12, align 4
  store ptr %5, ptr %13, align 8
  store i32 %6, ptr %14, align 4
  call void @llvm.lifetime.start.p0(i64 4, ptr %15) #5
  %16 = load i32, ptr %11, align 4
  store i32 %16, ptr %15, align 4
  %17 = load i32, ptr %12, align 4
  %18 = icmp eq i32 %17, 1
  br i1 %18, label %19, label %27

19:                                               ; preds = %7
  %20 = load ptr, ptr %9, align 8
  %21 = load i32, ptr @hf_gsm_a_bssmap_trace_reference, align 4
  %22 = load ptr, ptr %8, align 8
  %23 = load i32, ptr %15, align 4
  %24 = call ptr @proto_tree_add_item(ptr noundef %20, i32 noundef %21, ptr noundef %22, i32 noundef %23, i32 noundef 1, i32 noundef 0)
  %25 = load i32, ptr %15, align 4
  %26 = add i32 %25, 1
  store i32 %26, ptr %15, align 4
  br label %35

27:                                               ; preds = %7
  %28 = load ptr, ptr %9, align 8
  %29 = load i32, ptr @hf_gsm_a_bssmap_trace_reference, align 4
  %30 = load ptr, ptr %8, align 8
  %31 = load i32, ptr %15, align 4
  %32 = call ptr @proto_tree_add_item(ptr noundef %28, i32 noundef %29, ptr noundef %30, i32 noundef %31, i32 noundef 2, i32 noundef 0)
  %33 = load i32, ptr %15, align 4
  %34 = add i32 %33, 2
  store i32 %34, ptr %15, align 4
  br label %35

35:                                               ; preds = %27, %19
  %36 = load i32, ptr %12, align 4
  %37 = load i32, ptr %15, align 4
  %38 = load i32, ptr %11, align 4
  %39 = sub i32 %37, %38
  %40 = icmp ugt i32 %36, %39
  br i1 %40, label %41, label %59

41:                                               ; preds = %35
  %42 = load ptr, ptr %9, align 8
  %43 = load ptr, ptr %10, align 8
  %44 = load ptr, ptr %8, align 8
  %45 = load i32, ptr %15, align 4
  %46 = load i32, ptr %12, align 4
  %47 = load i32, ptr %15, align 4
  %48 = load i32, ptr %11, align 4
  %49 = sub i32 %47, %48
  %50 = sub i32 %46, %49
  %51 = call ptr @proto_tree_add_expert(ptr noundef %42, ptr noundef %43, ptr noundef @ei_gsm_a_bssmap_extraneous_data, ptr noundef %44, i32 noundef %45, i32 noundef %50)
  %52 = load i32, ptr %12, align 4
  %53 = load i32, ptr %15, align 4
  %54 = load i32, ptr %11, align 4
  %55 = sub i32 %53, %54
  %56 = sub i32 %52, %55
  %57 = load i32, ptr %15, align 4
  %58 = add i32 %57, %56
  store i32 %58, ptr %15, align 4
  br label %59

59:                                               ; preds = %41, %35
  %60 = load i32, ptr %15, align 4
  %61 = load i32, ptr %11, align 4
  %62 = sub i32 %60, %61
  %63 = trunc i32 %62 to i16
  call void @llvm.lifetime.end.p0(i64 4, ptr %15) #5
  ret i16 %63
}