; Function Attrs: null_pointer_is_valid sspstrong uwtable
define internal noundef zeroext i16 @be_trace_transaction_id(ptr noundef %0, ptr noundef %1, ptr noundef %2, i32 noundef %3, i32 noundef %4, ptr readnone captures(none) %5, i32 %6) #1 {
  %8 = icmp eq i32 %4, 1
  %9 = load i32, ptr @hf_gsm_a_bssmap_trace_reference, align 4
  %. = select i1 %8, i32 1, i32 2
  %10 = tail call ptr @proto_tree_add_item(ptr noundef %1, i32 noundef %9, ptr noundef %0, i32 noundef %3, i32 noundef %., i32 noundef 0)
  %11 = icmp ugt i32 %4, %.
  br i1 %11, label %12, label %16

12:                                               ; preds = %7
  %13 = add i32 %3, %.
  %14 = sub nuw i32 %4, %.
  %15 = tail call ptr @proto_tree_add_expert(ptr noundef %1, ptr noundef %2, ptr noundef nonnull @ei_gsm_a_bssmap_extraneous_data, ptr noundef %0, i32 noundef %13, i32 noundef %14)
  br label %16

16:                                               ; preds = %12, %7
  %.pre-phi = phi i32 [ %4, %12 ], [ %., %7 ]
  %17 = trunc i32 %.pre-phi to i16
  ret i16 %17
}